; Function Attrs: mustprogress uwtable
define void @_ZN3gmx11ConstraintsC2ERK10gmx_mtop_tRK10t_inputrecP6pull_tP8_IO_FILEPK9t_commrecbPK14gmx_multisim_tP6t_nrnbP13gmx_wallcyclebPNS_25ObservablesReducerBuilderEii(ptr noundef nonnull writeonly align 8 captures(none) dereferenceable(8) %0, ptr noundef nonnull align 8 dereferenceable(768) %1, ptr noundef nonnull align 8 dereferenceable(880) %2, ptr noundef %3, ptr noundef %4, ptr noundef %5, i1 noundef zeroext %6, ptr noundef %7, ptr noundef %8, ptr noundef %9, i1 noundef zeroext %10, ptr noundef %11, i32 noundef %12, i32 noundef %13) unnamed_addr #8 align 2 personality ptr @__gxx_personality_v0 {
  %15 = tail call noalias noundef nonnull dereferenceable(264) ptr @_Znwm(i64 noundef 264) #36
  invoke void @_ZN3gmx11Constraints4ImplC1ERK10gmx_mtop_tRK10t_inputrecP6pull_tP8_IO_FILEPK9t_commrecbPK14gmx_multisim_tP6t_nrnbP13gmx_wallcyclebPNS_25ObservablesReducerBuilderEii(ptr noundef nonnull align 8 dereferenceable(264) %15, ptr noundef nonnull align 8 dereferenceable(768) %1, ptr noundef nonnull align 8 dereferenceable(880) %2, ptr noundef %3, ptr noundef %4, ptr noundef %5, i1 noundef zeroext %6, ptr noundef %7, ptr noundef %8, ptr noundef %9, i1 noundef zeroext %10, ptr noundef %11, i32 noundef %12, i32 noundef %13)
          to label %16 unwind label %17

16:                                               ; preds = %14
  store ptr %15, ptr %0, align 8, !tbaa !4
  ret void

17:                                               ; preds = %14
  %18 = landingpad { ptr, i32 }
          cleanup
  tail call void @_ZdlPvm(ptr noundef nonnull %15, i64 noundef 264) #32
  resume { ptr, i32 } %18
}